
CH_12_06.elf:     file format elf32-avr

Sections:
Idx Name          Size      VMA       LMA       File off  Algn
  0 .data         00000000  00800100  00800100  0000019e  2**0
                  CONTENTS, ALLOC, LOAD, DATA
  1 .text         0000012a  00000000  00000000  00000074  2**1
                  CONTENTS, ALLOC, LOAD, READONLY, CODE
  2 .bss          00000002  00800100  00800100  0000019e  2**0
                  ALLOC
  3 .comment      00000030  00000000  00000000  0000019e  2**0
                  CONTENTS, READONLY
  4 .note.gnu.avr.deviceinfo 00000040  00000000  00000000  000001d0  2**2
                  CONTENTS, READONLY
  5 .debug_aranges 00000038  00000000  00000000  00000210  2**0
                  CONTENTS, READONLY, DEBUGGING
  6 .debug_info   000000f7  00000000  00000000  00000248  2**0
                  CONTENTS, READONLY, DEBUGGING
  7 .debug_abbrev 000000a8  00000000  00000000  0000033f  2**0
                  CONTENTS, READONLY, DEBUGGING
  8 .debug_line   00000123  00000000  00000000  000003e7  2**0
                  CONTENTS, READONLY, DEBUGGING
  9 .debug_frame  00000068  00000000  00000000  0000050c  2**2
                  CONTENTS, READONLY, DEBUGGING
 10 .debug_str    00000154  00000000  00000000  00000574  2**0
                  CONTENTS, READONLY, DEBUGGING
 11 .debug_loc    00000049  00000000  00000000  000006c8  2**0
                  CONTENTS, READONLY, DEBUGGING
 12 .debug_ranges 00000028  00000000  00000000  00000711  2**0
                  CONTENTS, READONLY, DEBUGGING

Disassembly of section .text:

00000000 <__vectors>:
   0:	45 c0       	rjmp	.+138    	; 0x8c <__ctors_end>
   2:	00 00       	nop
   4:	54 c0       	rjmp	.+168    	; 0xae <__vector_1>
   6:	00 00       	nop
   8:	51 c0       	rjmp	.+162    	; 0xac <__bad_interrupt>
   a:	00 00       	nop
   c:	4f c0       	rjmp	.+158    	; 0xac <__bad_interrupt>
   e:	00 00       	nop
  10:	4d c0       	rjmp	.+154    	; 0xac <__bad_interrupt>
  12:	00 00       	nop
  14:	4b c0       	rjmp	.+150    	; 0xac <__bad_interrupt>
  16:	00 00       	nop
  18:	49 c0       	rjmp	.+146    	; 0xac <__bad_interrupt>
  1a:	00 00       	nop
  1c:	47 c0       	rjmp	.+142    	; 0xac <__bad_interrupt>
  1e:	00 00       	nop
  20:	45 c0       	rjmp	.+138    	; 0xac <__bad_interrupt>
  22:	00 00       	nop
  24:	43 c0       	rjmp	.+134    	; 0xac <__bad_interrupt>
  26:	00 00       	nop
  28:	41 c0       	rjmp	.+130    	; 0xac <__bad_interrupt>
  2a:	00 00       	nop
  2c:	3f c0       	rjmp	.+126    	; 0xac <__bad_interrupt>
  2e:	00 00       	nop
  30:	3d c0       	rjmp	.+122    	; 0xac <__bad_interrupt>
  32:	00 00       	nop
  34:	3b c0       	rjmp	.+118    	; 0xac <__bad_interrupt>
  36:	00 00       	nop
  38:	39 c0       	rjmp	.+114    	; 0xac <__bad_interrupt>
  3a:	00 00       	nop
  3c:	37 c0       	rjmp	.+110    	; 0xac <__bad_interrupt>
  3e:	00 00       	nop
  40:	35 c0       	rjmp	.+106    	; 0xac <__bad_interrupt>
  42:	00 00       	nop
  44:	33 c0       	rjmp	.+102    	; 0xac <__bad_interrupt>
  46:	00 00       	nop
  48:	31 c0       	rjmp	.+98     	; 0xac <__bad_interrupt>
  4a:	00 00       	nop
  4c:	2f c0       	rjmp	.+94     	; 0xac <__bad_interrupt>
  4e:	00 00       	nop
  50:	2d c0       	rjmp	.+90     	; 0xac <__bad_interrupt>
  52:	00 00       	nop
  54:	2b c0       	rjmp	.+86     	; 0xac <__bad_interrupt>
  56:	00 00       	nop
  58:	29 c0       	rjmp	.+82     	; 0xac <__bad_interrupt>
  5a:	00 00       	nop
  5c:	27 c0       	rjmp	.+78     	; 0xac <__bad_interrupt>
  5e:	00 00       	nop
  60:	25 c0       	rjmp	.+74     	; 0xac <__bad_interrupt>
  62:	00 00       	nop
  64:	23 c0       	rjmp	.+70     	; 0xac <__bad_interrupt>
  66:	00 00       	nop
  68:	21 c0       	rjmp	.+66     	; 0xac <__bad_interrupt>
  6a:	00 00       	nop
  6c:	1f c0       	rjmp	.+62     	; 0xac <__bad_interrupt>
  6e:	00 00       	nop
  70:	1d c0       	rjmp	.+58     	; 0xac <__bad_interrupt>
  72:	00 00       	nop
  74:	1b c0       	rjmp	.+54     	; 0xac <__bad_interrupt>
  76:	00 00       	nop
  78:	19 c0       	rjmp	.+50     	; 0xac <__bad_interrupt>
  7a:	00 00       	nop
  7c:	17 c0       	rjmp	.+46     	; 0xac <__bad_interrupt>
  7e:	00 00       	nop
  80:	15 c0       	rjmp	.+42     	; 0xac <__bad_interrupt>
  82:	00 00       	nop
  84:	13 c0       	rjmp	.+38     	; 0xac <__bad_interrupt>
  86:	00 00       	nop
  88:	11 c0       	rjmp	.+34     	; 0xac <__bad_interrupt>
	...

0000008c <__ctors_end>:
  8c:	11 24       	eor	r1, r1
  8e:	1f be       	out	0x3f, r1	; 63
  90:	cf ef       	ldi	r28, 0xFF	; 255
  92:	d0 e1       	ldi	r29, 0x10	; 16
  94:	de bf       	out	0x3e, r29	; 62
  96:	cd bf       	out	0x3d, r28	; 61

00000098 <__do_clear_bss>:
  98:	21 e0       	ldi	r18, 0x01	; 1
  9a:	a0 e0       	ldi	r26, 0x00	; 0
  9c:	b1 e0       	ldi	r27, 0x01	; 1
  9e:	01 c0       	rjmp	.+2      	; 0xa2 <.do_clear_bss_start>

000000a0 <.do_clear_bss_loop>:
  a0:	1d 92       	st	X+, r1

000000a2 <.do_clear_bss_start>:
  a2:	a2 30       	cpi	r26, 0x02	; 2
  a4:	b2 07       	cpc	r27, r18
  a6:	e1 f7       	brne	.-8      	; 0xa0 <.do_clear_bss_loop>
  a8:	31 d0       	rcall	.+98     	; 0x10c <main>
  aa:	3d c0       	rjmp	.+122    	; 0x126 <_exit>

000000ac <__bad_interrupt>:
  ac:	a9 cf       	rjmp	.-174    	; 0x0 <__vectors>

000000ae <__vector_1>:
#include <avr/interrupt.h>

volatile int state = 0;			// 현재 LED의 상태

ISR(INT0_vect)
{
  ae:	1f 92       	push	r1
  b0:	0f 92       	push	r0
  b2:	0f b6       	in	r0, 0x3f	; 63
  b4:	0f 92       	push	r0
  b6:	11 24       	eor	r1, r1
  b8:	8f 93       	push	r24
  ba:	9f 93       	push	r25
	state = (state + 1) % 2;			// LED 상태 전환
  bc:	80 91 00 01 	lds	r24, 0x0100	; 0x800100 <_edata>
  c0:	90 91 01 01 	lds	r25, 0x0101	; 0x800101 <_edata+0x1>
  c4:	01 96       	adiw	r24, 0x01	; 1
  c6:	81 70       	andi	r24, 0x01	; 1
  c8:	90 78       	andi	r25, 0x80	; 128
  ca:	99 23       	and	r25, r25
  cc:	24 f4       	brge	.+8      	; 0xd6 <__vector_1+0x28>
  ce:	01 97       	sbiw	r24, 0x01	; 1
  d0:	8e 6f       	ori	r24, 0xFE	; 254
  d2:	9f 6f       	ori	r25, 0xFF	; 255
  d4:	01 96       	adiw	r24, 0x01	; 1
  d6:	90 93 01 01 	sts	0x0101, r25	; 0x800101 <_edata+0x1>
  da:	80 93 00 01 	sts	0x0100, r24	; 0x800100 <_edata>
}
  de:	9f 91       	pop	r25
  e0:	8f 91       	pop	r24
  e2:	0f 90       	pop	r0
  e4:	0f be       	out	0x3f, r0	; 63
  e6:	0f 90       	pop	r0
  e8:	1f 90       	pop	r1
  ea:	18 95       	reti

000000ec <INIT_PORT>:

void INIT_PORT(void)
{
	DDRB = 0x01;				// PB0 핀을 출력으로 설정
  ec:	81 e0       	ldi	r24, 0x01	; 1
  ee:	87 bb       	out	0x17, r24	; 23
	PORTB = 0x00;				// LED는 꺼진 상태에서 시작
  f0:	18 ba       	out	0x18, r1	; 24
	
	DDRD = 0x00;				// PD0 핀을 입력으로 설정
  f2:	11 ba       	out	0x11, r1	; 17
	PORTD = 0x01;			// PD0 핀의 풀업 저항 사용
  f4:	82 bb       	out	0x12, r24	; 18
  f6:	08 95       	ret

000000f8 <INIT_INT0>:
}

void INIT_INT0(void)
{
	EIMSK |= (1 << INT0);			// INT0 인터럽트 활성화
  f8:	89 b7       	in	r24, 0x39	; 57
  fa:	81 60       	ori	r24, 0x01	; 1
  fc:	89 bf       	out	0x39, r24	; 57
	EICRA |= (1 << ISC01);			// 하강 에지에서 인터럽트 발생
  fe:	ea e6       	ldi	r30, 0x6A	; 106
 100:	f0 e0       	ldi	r31, 0x00	; 0
 102:	80 81       	ld	r24, Z
 104:	82 60       	ori	r24, 0x02	; 2
 106:	80 83       	st	Z, r24
	sei();							// 전역적으로 인터럽트 허용
 108:	78 94       	sei
 10a:	08 95       	ret

0000010c <main>:
}

int main(void)
{
	INIT_PORT();				// 포트 설정
 10c:	ef df       	rcall	.-34     	; 0xec <INIT_PORT>
	INIT_INT0();				// INT0 인터럽트 설정
 10e:	f4 df       	rcall	.-24     	; 0xf8 <INIT_INT0>
	
	while(1){
		if(state == 1){
			PORTB = 0x01;
 110:	21 e0       	ldi	r18, 0x01	; 1
{
	INIT_PORT();				// 포트 설정
	INIT_INT0();				// INT0 인터럽트 설정
	
	while(1){
		if(state == 1){
 112:	80 91 00 01 	lds	r24, 0x0100	; 0x800100 <_edata>
 116:	90 91 01 01 	lds	r25, 0x0101	; 0x800101 <_edata+0x1>
 11a:	01 97       	sbiw	r24, 0x01	; 1
 11c:	11 f4       	brne	.+4      	; 0x122 <main+0x16>
			PORTB = 0x01;
 11e:	28 bb       	out	0x18, r18	; 24
 120:	f8 cf       	rjmp	.-16     	; 0x112 <main+0x6>
		}
		else{
			PORTB = 0x00;
 122:	18 ba       	out	0x18, r1	; 24
 124:	f6 cf       	rjmp	.-20     	; 0x112 <main+0x6>

00000126 <_exit>:
 126:	f8 94       	cli

00000128 <__stop_program>:
 128:	ff cf       	rjmp	.-2      	; 0x128 <__stop_program>
