
CH_22_04.elf:     file format elf32-avr

Sections:
Idx Name          Size      VMA       LMA       File off  Algn
  0 .data         0000000c  00800100  0000022e  000002a2  2**0
                  CONTENTS, ALLOC, LOAD, DATA
  1 .text         0000022e  00000000  00000000  00000074  2**1
                  CONTENTS, ALLOC, LOAD, READONLY, CODE
  2 .comment      00000030  00000000  00000000  000002ae  2**0
                  CONTENTS, READONLY
  3 .note.gnu.avr.deviceinfo 00000040  00000000  00000000  000002e0  2**2
                  CONTENTS, READONLY
  4 .debug_aranges 00000070  00000000  00000000  00000320  2**0
                  CONTENTS, READONLY, DEBUGGING
  5 .debug_info   000006ce  00000000  00000000  00000390  2**0
                  CONTENTS, READONLY, DEBUGGING
  6 .debug_abbrev 000002fc  00000000  00000000  00000a5e  2**0
                  CONTENTS, READONLY, DEBUGGING
  7 .debug_line   00000424  00000000  00000000  00000d5a  2**0
                  CONTENTS, READONLY, DEBUGGING
  8 .debug_frame  000000c8  00000000  00000000  00001180  2**2
                  CONTENTS, READONLY, DEBUGGING
  9 .debug_str    00000208  00000000  00000000  00001248  2**0
                  CONTENTS, READONLY, DEBUGGING
 10 .debug_loc    0000025a  00000000  00000000  00001450  2**0
                  CONTENTS, READONLY, DEBUGGING
 11 .debug_ranges 00000050  00000000  00000000  000016aa  2**0
                  CONTENTS, READONLY, DEBUGGING

Disassembly of section .text:

00000000 <__vectors>:
   0:	45 c0       	rjmp	.+138    	; 0x8c <__ctors_end>
   2:	00 00       	nop
   4:	58 c0       	rjmp	.+176    	; 0xb6 <__bad_interrupt>
   6:	00 00       	nop
   8:	56 c0       	rjmp	.+172    	; 0xb6 <__bad_interrupt>
   a:	00 00       	nop
   c:	54 c0       	rjmp	.+168    	; 0xb6 <__bad_interrupt>
   e:	00 00       	nop
  10:	52 c0       	rjmp	.+164    	; 0xb6 <__bad_interrupt>
  12:	00 00       	nop
  14:	50 c0       	rjmp	.+160    	; 0xb6 <__bad_interrupt>
  16:	00 00       	nop
  18:	4e c0       	rjmp	.+156    	; 0xb6 <__bad_interrupt>
  1a:	00 00       	nop
  1c:	4c c0       	rjmp	.+152    	; 0xb6 <__bad_interrupt>
  1e:	00 00       	nop
  20:	4a c0       	rjmp	.+148    	; 0xb6 <__bad_interrupt>
  22:	00 00       	nop
  24:	48 c0       	rjmp	.+144    	; 0xb6 <__bad_interrupt>
  26:	00 00       	nop
  28:	46 c0       	rjmp	.+140    	; 0xb6 <__bad_interrupt>
  2a:	00 00       	nop
  2c:	44 c0       	rjmp	.+136    	; 0xb6 <__bad_interrupt>
  2e:	00 00       	nop
  30:	42 c0       	rjmp	.+132    	; 0xb6 <__bad_interrupt>
  32:	00 00       	nop
  34:	40 c0       	rjmp	.+128    	; 0xb6 <__bad_interrupt>
  36:	00 00       	nop
  38:	3e c0       	rjmp	.+124    	; 0xb6 <__bad_interrupt>
  3a:	00 00       	nop
  3c:	3c c0       	rjmp	.+120    	; 0xb6 <__bad_interrupt>
  3e:	00 00       	nop
  40:	3a c0       	rjmp	.+116    	; 0xb6 <__bad_interrupt>
  42:	00 00       	nop
  44:	38 c0       	rjmp	.+112    	; 0xb6 <__bad_interrupt>
  46:	00 00       	nop
  48:	36 c0       	rjmp	.+108    	; 0xb6 <__bad_interrupt>
  4a:	00 00       	nop
  4c:	34 c0       	rjmp	.+104    	; 0xb6 <__bad_interrupt>
  4e:	00 00       	nop
  50:	32 c0       	rjmp	.+100    	; 0xb6 <__bad_interrupt>
  52:	00 00       	nop
  54:	30 c0       	rjmp	.+96     	; 0xb6 <__bad_interrupt>
  56:	00 00       	nop
  58:	2e c0       	rjmp	.+92     	; 0xb6 <__bad_interrupt>
  5a:	00 00       	nop
  5c:	2c c0       	rjmp	.+88     	; 0xb6 <__bad_interrupt>
  5e:	00 00       	nop
  60:	2a c0       	rjmp	.+84     	; 0xb6 <__bad_interrupt>
  62:	00 00       	nop
  64:	28 c0       	rjmp	.+80     	; 0xb6 <__bad_interrupt>
  66:	00 00       	nop
  68:	26 c0       	rjmp	.+76     	; 0xb6 <__bad_interrupt>
  6a:	00 00       	nop
  6c:	24 c0       	rjmp	.+72     	; 0xb6 <__bad_interrupt>
  6e:	00 00       	nop
  70:	22 c0       	rjmp	.+68     	; 0xb6 <__bad_interrupt>
  72:	00 00       	nop
  74:	20 c0       	rjmp	.+64     	; 0xb6 <__bad_interrupt>
  76:	00 00       	nop
  78:	1e c0       	rjmp	.+60     	; 0xb6 <__bad_interrupt>
  7a:	00 00       	nop
  7c:	1c c0       	rjmp	.+56     	; 0xb6 <__bad_interrupt>
  7e:	00 00       	nop
  80:	1a c0       	rjmp	.+52     	; 0xb6 <__bad_interrupt>
  82:	00 00       	nop
  84:	18 c0       	rjmp	.+48     	; 0xb6 <__bad_interrupt>
  86:	00 00       	nop
  88:	16 c0       	rjmp	.+44     	; 0xb6 <__bad_interrupt>
	...

0000008c <__ctors_end>:
  8c:	11 24       	eor	r1, r1
  8e:	1f be       	out	0x3f, r1	; 63
  90:	cf ef       	ldi	r28, 0xFF	; 255
  92:	d0 e1       	ldi	r29, 0x10	; 16
  94:	de bf       	out	0x3e, r29	; 62
  96:	cd bf       	out	0x3d, r28	; 61

00000098 <__do_copy_data>:
  98:	11 e0       	ldi	r17, 0x01	; 1
  9a:	a0 e0       	ldi	r26, 0x00	; 0
  9c:	b1 e0       	ldi	r27, 0x01	; 1
  9e:	ee e2       	ldi	r30, 0x2E	; 46
  a0:	f2 e0       	ldi	r31, 0x02	; 2
  a2:	00 e0       	ldi	r16, 0x00	; 0
  a4:	0b bf       	out	0x3b, r16	; 59
  a6:	02 c0       	rjmp	.+4      	; 0xac <__do_copy_data+0x14>
  a8:	07 90       	elpm	r0, Z+
  aa:	0d 92       	st	X+, r0
  ac:	ac 30       	cpi	r26, 0x0C	; 12
  ae:	b1 07       	cpc	r27, r17
  b0:	d9 f7       	brne	.-10     	; 0xa8 <__do_copy_data+0x10>
  b2:	02 d0       	rcall	.+4      	; 0xb8 <main>
  b4:	ba c0       	rjmp	.+372    	; 0x22a <_exit>

000000b6 <__bad_interrupt>:
  b6:	a4 cf       	rjmp	.-184    	; 0x0 <__vectors>

000000b8 <main>:

uint8_t MODE = 4;	// 8비트 모드인 경우 8, 4비트 모드인 경우 4

int main(void)
{
	LCD_init();					// 텍스트 LCD 초기화
  b8:	70 d0       	rcall	.+224    	; 0x19a <LCD_init>
	
	LCD_write_string("Hello LCD!");		// 문자열 출력
  ba:	81 e0       	ldi	r24, 0x01	; 1
  bc:	91 e0       	ldi	r25, 0x01	; 1
  be:	96 d0       	rcall	.+300    	; 0x1ec <LCD_write_string>
	#else
		//round up by default
		__ticks_dc = (uint32_t)(ceil(fabs(__tmp)));
	#endif

	__builtin_avr_delay_cycles(__ticks_dc);
  c0:	2f ef       	ldi	r18, 0xFF	; 255
  c2:	83 ed       	ldi	r24, 0xD3	; 211
  c4:	90 e3       	ldi	r25, 0x30	; 48
  c6:	21 50       	subi	r18, 0x01	; 1
  c8:	80 40       	sbci	r24, 0x00	; 0
  ca:	90 40       	sbci	r25, 0x00	; 0
  cc:	e1 f7       	brne	.-8      	; 0xc6 <main+0xe>
  ce:	00 c0       	rjmp	.+0      	; 0xd0 <main+0x18>
  d0:	00 00       	nop
	
	_delay_ms(1000);			// 1초 대기
	
	LCD_clear();				// 화면 지움
  d2:	5a d0       	rcall	.+180    	; 0x188 <LCD_clear>
	
	// 화면에 보이는 영역은 기본값으로 0~1행, 0~15열로 설정되어 있다.
	LCD_goto_XY(0, 0);			// 0행 0열로 이동
  d4:	60 e0       	ldi	r22, 0x00	; 0
  d6:	80 e0       	ldi	r24, 0x00	; 0
  d8:	9e d0       	rcall	.+316    	; 0x216 <LCD_goto_XY>
	LCD_write_data('1');			// 문자 단위 출력
  da:	81 e3       	ldi	r24, 0x31	; 49
  dc:	1d d0       	rcall	.+58     	; 0x118 <LCD_write_data>
	LCD_goto_XY(0, 5);
  de:	65 e0       	ldi	r22, 0x05	; 5
  e0:	80 e0       	ldi	r24, 0x00	; 0
  e2:	99 d0       	rcall	.+306    	; 0x216 <LCD_goto_XY>
	LCD_write_data('2');
  e4:	82 e3       	ldi	r24, 0x32	; 50
  e6:	18 d0       	rcall	.+48     	; 0x118 <LCD_write_data>
	LCD_goto_XY(1, 0);
  e8:	60 e0       	ldi	r22, 0x00	; 0
  ea:	81 e0       	ldi	r24, 0x01	; 1
  ec:	94 d0       	rcall	.+296    	; 0x216 <LCD_goto_XY>
	LCD_write_data('3');
  ee:	83 e3       	ldi	r24, 0x33	; 51
  f0:	13 d0       	rcall	.+38     	; 0x118 <LCD_write_data>
	LCD_goto_XY(1, 5);
  f2:	65 e0       	ldi	r22, 0x05	; 5
  f4:	81 e0       	ldi	r24, 0x01	; 1
  f6:	8f d0       	rcall	.+286    	; 0x216 <LCD_goto_XY>
	LCD_write_data('4');
  f8:	84 e3       	ldi	r24, 0x34	; 52
  fa:	0e d0       	rcall	.+28     	; 0x118 <LCD_write_data>
	
	while(1);
  fc:	ff cf       	rjmp	.-2      	; 0xfc <main+0x44>

000000fe <LCD_pulse_enable>:
﻿#include "Text_LCD.h"

void LCD_pulse_enable(void) 		// 하강 에지에서 동작
{
	PORT_CONTROL |= (1 << E_PIN);	// E를 HIGH로
  fe:	aa 9a       	sbi	0x15, 2	; 21
	#else
		//round up by default
		__ticks_dc = (uint32_t)(ceil(fabs(__tmp)));
	#endif

	__builtin_avr_delay_cycles(__ticks_dc);
 100:	85 e0       	ldi	r24, 0x05	; 5
 102:	8a 95       	dec	r24
 104:	f1 f7       	brne	.-4      	; 0x102 <LCD_pulse_enable+0x4>
 106:	00 00       	nop
	_delay_us(1);
	PORT_CONTROL &= ~(1 << E_PIN);	// E를 LOW로
 108:	aa 98       	cbi	0x15, 2	; 21
	#else
		//round up by default
		__ticks_dc = (uint32_t)(ceil(fabs(__tmp)));
	#endif

	__builtin_avr_delay_cycles(__ticks_dc);
 10a:	8f e9       	ldi	r24, 0x9F	; 159
 10c:	9f e0       	ldi	r25, 0x0F	; 15
 10e:	01 97       	sbiw	r24, 0x01	; 1
 110:	f1 f7       	brne	.-4      	; 0x10e <LCD_pulse_enable+0x10>
 112:	00 c0       	rjmp	.+0      	; 0x114 <LCD_pulse_enable+0x16>
 114:	00 00       	nop
 116:	08 95       	ret

00000118 <LCD_write_data>:
	_delay_ms(1);
}

void LCD_write_data(uint8_t data)
{
 118:	cf 93       	push	r28
 11a:	c8 2f       	mov	r28, r24
	PORT_CONTROL |= (1 << RS_PIN);	// 문자 출력에서 RS는 1
 11c:	a8 9a       	sbi	0x15, 0	; 21
	
	if(MODE == 8){
 11e:	80 91 00 01 	lds	r24, 0x0100	; 0x800100 <MODE>
 122:	88 30       	cpi	r24, 0x08	; 8
 124:	19 f4       	brne	.+6      	; 0x12c <LCD_write_data+0x14>
		PORT_DATA = data;			// 출력할 문자 데이터
 126:	c2 bb       	out	0x12, r28	; 18
		LCD_pulse_enable();
 128:	ea df       	rcall	.-44     	; 0xfe <LCD_pulse_enable>
 12a:	0a c0       	rjmp	.+20     	; 0x140 <LCD_write_data+0x28>
	}
	else{
		PORT_DATA = data & 0xF0;		// 상위 4비트
 12c:	8c 2f       	mov	r24, r28
 12e:	80 7f       	andi	r24, 0xF0	; 240
 130:	82 bb       	out	0x12, r24	; 18
		LCD_pulse_enable();
 132:	e5 df       	rcall	.-54     	; 0xfe <LCD_pulse_enable>
		
		PORT_DATA = (data << 4) & 0xF0;	// 하위 4비트
 134:	20 e1       	ldi	r18, 0x10	; 16
 136:	c2 9f       	mul	r28, r18
 138:	c0 01       	movw	r24, r0
 13a:	11 24       	eor	r1, r1
 13c:	82 bb       	out	0x12, r24	; 18
		LCD_pulse_enable();
 13e:	df df       	rcall	.-66     	; 0xfe <LCD_pulse_enable>
 140:	8f e3       	ldi	r24, 0x3F	; 63
 142:	9f e1       	ldi	r25, 0x1F	; 31
 144:	01 97       	sbiw	r24, 0x01	; 1
 146:	f1 f7       	brne	.-4      	; 0x144 <LCD_write_data+0x2c>
 148:	00 c0       	rjmp	.+0      	; 0x14a <LCD_write_data+0x32>
 14a:	00 00       	nop
	}
	_delay_ms(2);
}
 14c:	cf 91       	pop	r28
 14e:	08 95       	ret

00000150 <LCD_write_command>:

void LCD_write_command(uint8_t command)
{
 150:	cf 93       	push	r28
 152:	c8 2f       	mov	r28, r24
	PORT_CONTROL &= ~(1 << RS_PIN);	// 명령어 실행에서 RS는 0
 154:	a8 98       	cbi	0x15, 0	; 21
	
	if(MODE == 8){
 156:	80 91 00 01 	lds	r24, 0x0100	; 0x800100 <MODE>
 15a:	88 30       	cpi	r24, 0x08	; 8
 15c:	19 f4       	brne	.+6      	; 0x164 <LCD_write_command+0x14>
		PORT_DATA = command;		// 데이터 핀에 명령어 전달
 15e:	c2 bb       	out	0x12, r28	; 18
		LCD_pulse_enable();			// 명령어 실행
 160:	ce df       	rcall	.-100    	; 0xfe <LCD_pulse_enable>
 162:	0a c0       	rjmp	.+20     	; 0x178 <LCD_write_command+0x28>
	}
	else{
		PORT_DATA = command & 0xF0;		// 상위 4비트
 164:	8c 2f       	mov	r24, r28
 166:	80 7f       	andi	r24, 0xF0	; 240
 168:	82 bb       	out	0x12, r24	; 18
		LCD_pulse_enable();
 16a:	c9 df       	rcall	.-110    	; 0xfe <LCD_pulse_enable>
		
		PORT_DATA = (command << 4) & 0xF0;	// 하위 4비트
 16c:	20 e1       	ldi	r18, 0x10	; 16
 16e:	c2 9f       	mul	r28, r18
 170:	c0 01       	movw	r24, r0
 172:	11 24       	eor	r1, r1
 174:	82 bb       	out	0x12, r24	; 18
		LCD_pulse_enable();
 176:	c3 df       	rcall	.-122    	; 0xfe <LCD_pulse_enable>
 178:	8f e3       	ldi	r24, 0x3F	; 63
 17a:	9f e1       	ldi	r25, 0x1F	; 31
 17c:	01 97       	sbiw	r24, 0x01	; 1
 17e:	f1 f7       	brne	.-4      	; 0x17c <LCD_write_command+0x2c>
 180:	00 c0       	rjmp	.+0      	; 0x182 <LCD_write_command+0x32>
 182:	00 00       	nop
	}
	_delay_ms(2);
}
 184:	cf 91       	pop	r28
 186:	08 95       	ret

00000188 <LCD_clear>:

void LCD_clear(void)
{
	LCD_write_command(COMMAND_CLEAR_DISPLAY);
 188:	81 e0       	ldi	r24, 0x01	; 1
 18a:	e2 df       	rcall	.-60     	; 0x150 <LCD_write_command>
 18c:	8f e3       	ldi	r24, 0x3F	; 63
 18e:	9f e1       	ldi	r25, 0x1F	; 31
 190:	01 97       	sbiw	r24, 0x01	; 1
 192:	f1 f7       	brne	.-4      	; 0x190 <LCD_clear+0x8>
 194:	00 c0       	rjmp	.+0      	; 0x196 <LCD_clear+0xe>
 196:	00 00       	nop
 198:	08 95       	ret

0000019a <LCD_init>:
 19a:	2f ef       	ldi	r18, 0xFF	; 255
 19c:	80 e7       	ldi	r24, 0x70	; 112
 19e:	92 e0       	ldi	r25, 0x02	; 2
 1a0:	21 50       	subi	r18, 0x01	; 1
 1a2:	80 40       	sbci	r24, 0x00	; 0
 1a4:	90 40       	sbci	r25, 0x00	; 0
 1a6:	e1 f7       	brne	.-8      	; 0x1a0 <LCD_init+0x6>
 1a8:	00 c0       	rjmp	.+0      	; 0x1aa <LCD_init+0x10>
 1aa:	00 00       	nop
void LCD_init(void)
{
	_delay_ms(50);				// 초기 구동 시간
	
	// 연결 핀을 출력으로 설정
	if(MODE == 8) DDR_DATA = 0xFF;
 1ac:	80 91 00 01 	lds	r24, 0x0100	; 0x800100 <MODE>
 1b0:	88 30       	cpi	r24, 0x08	; 8
 1b2:	19 f4       	brne	.+6      	; 0x1ba <LCD_init+0x20>
 1b4:	8f ef       	ldi	r24, 0xFF	; 255
 1b6:	81 bb       	out	0x11, r24	; 17
 1b8:	03 c0       	rjmp	.+6      	; 0x1c0 <LCD_init+0x26>
	else DDR_DATA |= 0xF0;
 1ba:	81 b3       	in	r24, 0x11	; 17
 1bc:	80 6f       	ori	r24, 0xF0	; 240
 1be:	81 bb       	out	0x11, r24	; 17
	PORT_DATA = 0x00;
 1c0:	12 ba       	out	0x12, r1	; 18
	
	DDR_CONTROL |= (1 << RS_PIN) | (1 << RW_PIN) | (1 << E_PIN);
 1c2:	84 b3       	in	r24, 0x14	; 20
 1c4:	87 60       	ori	r24, 0x07	; 7
 1c6:	84 bb       	out	0x14, r24	; 20
	
	// RW 핀으로 LOW를 출력하여 쓰기 전용으로 사용
	PORT_CONTROL &= ~(1 << RW_PIN);
 1c8:	a9 98       	cbi	0x15, 1	; 21
	
	if(MODE == 8)
 1ca:	80 91 00 01 	lds	r24, 0x0100	; 0x800100 <MODE>
 1ce:	88 30       	cpi	r24, 0x08	; 8
 1d0:	19 f4       	brne	.+6      	; 0x1d8 <LCD_init+0x3e>
	LCD_write_command(COMMAND_8_BIT_MODE);		// 8비트 모드
 1d2:	88 e3       	ldi	r24, 0x38	; 56
 1d4:	bd df       	rcall	.-134    	; 0x150 <LCD_write_command>
 1d6:	04 c0       	rjmp	.+8      	; 0x1e0 <LCD_init+0x46>
	else{
		LCD_write_command(0x02);				// 4비트 모드 추가 명령
 1d8:	82 e0       	ldi	r24, 0x02	; 2
 1da:	ba df       	rcall	.-140    	; 0x150 <LCD_write_command>
		LCD_write_command(COMMAND_4_BIT_MODE);		// 4비트 모드
 1dc:	88 e2       	ldi	r24, 0x28	; 40
 1de:	b8 df       	rcall	.-144    	; 0x150 <LCD_write_command>
	}
	
	// display on/off control
	// 화면 on, 커서 off, 커서 깜빡임 off
	uint8_t command = 0x08 | (1 << COMMAND_DISPLAY_ON_OFF_BIT);
	LCD_write_command(command);
 1e0:	8c e0       	ldi	r24, 0x0C	; 12
 1e2:	b6 df       	rcall	.-148    	; 0x150 <LCD_write_command>

	LCD_clear();			// 화면 지움
 1e4:	d1 df       	rcall	.-94     	; 0x188 <LCD_clear>

	// Entry Mode Set
	// 출력 후 커서를 오른쪽으로 옮김, 즉, DDRAM의 주소가 증가하며 화면 이동은 없음
	LCD_write_command(0x06);
 1e6:	86 e0       	ldi	r24, 0x06	; 6
 1e8:	b3 cf       	rjmp	.-154    	; 0x150 <LCD_write_command>
 1ea:	08 95       	ret

000001ec <LCD_write_string>:
}

void LCD_write_string(char *string)
{
 1ec:	0f 93       	push	r16
 1ee:	1f 93       	push	r17
 1f0:	cf 93       	push	r28
 1f2:	fc 01       	movw	r30, r24
	uint8_t i;
	for(i = 0; string[i]; i++)			// 종료 문자를 만날 때까지
 1f4:	80 81       	ld	r24, Z
 1f6:	88 23       	and	r24, r24
 1f8:	51 f0       	breq	.+20     	; 0x20e <LCD_write_string+0x22>
 1fa:	8f 01       	movw	r16, r30
 1fc:	c0 e0       	ldi	r28, 0x00	; 0
	LCD_write_data(string[i]);		// 문자 단위 출력
 1fe:	8c df       	rcall	.-232    	; 0x118 <LCD_write_data>
}

void LCD_write_string(char *string)
{
	uint8_t i;
	for(i = 0; string[i]; i++)			// 종료 문자를 만날 때까지
 200:	cf 5f       	subi	r28, 0xFF	; 255
 202:	f8 01       	movw	r30, r16
 204:	ec 0f       	add	r30, r28
 206:	f1 1d       	adc	r31, r1
 208:	80 81       	ld	r24, Z
 20a:	81 11       	cpse	r24, r1
 20c:	f8 cf       	rjmp	.-16     	; 0x1fe <LCD_write_string+0x12>
	LCD_write_data(string[i]);		// 문자 단위 출력
}
 20e:	cf 91       	pop	r28
 210:	1f 91       	pop	r17
 212:	0f 91       	pop	r16
 214:	08 95       	ret

00000216 <LCD_goto_XY>:

void LCD_goto_XY(uint8_t row, uint8_t col)
{
	col %= 16;		// [0 15]
 216:	6f 70       	andi	r22, 0x0F	; 15
	row %= 2;		// [0 1]
 218:	81 70       	andi	r24, 0x01	; 1

	// 첫째 라인 시작 주소는 0x00, 둘째 라인 시작 주소는 0x40
	uint8_t address = (0x40 * row) + col;
 21a:	90 e4       	ldi	r25, 0x40	; 64
 21c:	89 9f       	mul	r24, r25
 21e:	60 0d       	add	r22, r0
 220:	11 24       	eor	r1, r1
 222:	86 2f       	mov	r24, r22
	uint8_t command = 0x80 + address;
	
	LCD_write_command(command);	// 커서 이동
 224:	80 58       	subi	r24, 0x80	; 128
 226:	94 cf       	rjmp	.-216    	; 0x150 <LCD_write_command>
 228:	08 95       	ret

0000022a <_exit>:
 22a:	f8 94       	cli

0000022c <__stop_program>:
 22c:	ff cf       	rjmp	.-2      	; 0x22c <__stop_program>
